; ModuleID = '5/646.c'
source_filename = "5/646.c"
target datalayout = "e-m:e-p270:32:32-p271:32:32-p272:64:64-i64:64-f80:128-n8:16:32:64-S128"
target triple = "x86_64-pc-linux-gnu"

@.str = private unnamed_addr constant [4 x i8] c"%lf\00", align 1
@.str.1 = private unnamed_addr constant [3 x i8] c"%s\00", align 1
@.str.2 = private unnamed_addr constant [4 x i8] c"yes\00", align 1
@.str.3 = private unnamed_addr constant [3 x i8] c"no\00", align 1
@.str.4 = private unnamed_addr constant [6 x i8] c"error\00", align 1

; Function Attrs: noinline nounwind uwtable
define dso_local i32 @main() #0 {
  %1 = alloca i32, align 4
  %2 = alloca double, align 8
  %3 = alloca i32, align 4
  %4 = alloca i32, align 4
  %5 = alloca i32, align 4
  %6 = alloca [600 x i8], align 16
  %7 = alloca [600 x i8], align 16
  store i32 0, i32* %1, align 4
  store i32 0, i32* %3, align 4
  store i32 1, i32* %5, align 4
  %8 = call i32 (i8*, ...) @__isoc99_scanf(i8* getelementptr inbounds ([4 x i8], [4 x i8]* @.str, i64 0, i64 0), double* %2)
  %9 = getelementptr inbounds [600 x i8], [600 x i8]* %6, i64 0, i64 0
  %10 = call i32 (i8*, ...) @__isoc99_scanf(i8* getelementptr inbounds ([3 x i8], [3 x i8]* @.str.1, i64 0, i64 0), i8* %9)
  %11 = getelementptr inbounds [600 x i8], [600 x i8]* %7, i64 0, i64 0
  %12 = call i32 (i8*, ...) @__isoc99_scanf(i8* getelementptr inbounds ([3 x i8], [3 x i8]* @.str.1, i64 0, i64 0), i8* %11)
  %13 = getelementptr inbounds [600 x i8], [600 x i8]* %6, i64 0, i64 0
  %14 = call i64 @strlen(i8* %13) #3
  %15 = getelementptr inbounds [600 x i8], [600 x i8]* %7, i64 0, i64 0
  %16 = call i64 @strlen(i8* %15) #3
  %17 = icmp ne i64 %14, %16
  br i1 %17, label %18, label %19

18:                                               ; preds = %0
  store i32 0, i32* %5, align 4
  br label %19

19:                                               ; preds = %18, %0
  store i32 0, i32* %4, align 4
  br label %20

20:                                               ; preds = %56, %19
  %21 = load i32, i32* %4, align 4
  %22 = sext i32 %21 to i64
  %23 = getelementptr inbounds [600 x i8], [600 x i8]* %6, i64 0, i64 0
  %24 = call i64 @strlen(i8* %23) #3
  %25 = icmp ult i64 %22, %24
  br i1 %25, label %26, label %59

26:                                               ; preds = %20
  %27 = load i32, i32* %4, align 4
  %28 = sext i32 %27 to i64
  %29 = getelementptr inbounds [600 x i8], [600 x i8]* %6, i64 0, i64 %28
  %30 = load i8, i8* %29, align 1
  %31 = sext i8 %30 to i32
  %32 = icmp ne i32 %31, 65
  br i1 %32, label %33, label %55

33:                                               ; preds = %26
  %34 = load i32, i32* %4, align 4
  %35 = sext i32 %34 to i64
  %36 = getelementptr inbounds [600 x i8], [600 x i8]* %6, i64 0, i64 %35
  %37 = load i8, i8* %36, align 1
  %38 = sext i8 %37 to i32
  %39 = icmp ne i32 %38, 67
  br i1 %39, label %40, label %55

40:                                               ; preds = %33
  %41 = load i32, i32* %4, align 4
  %42 = sext i32 %41 to i64
  %43 = getelementptr inbounds [600 x i8], [600 x i8]* %6, i64 0, i64 %42
  %44 = load i8, i8* %43, align 1
  %45 = sext i8 %44 to i32
  %46 = icmp ne i32 %45, 84
  br i1 %46, label %47, label %55

47:                                               ; preds = %40
  %48 = load i32, i32* %4, align 4
  %49 = sext i32 %48 to i64
  %50 = getelementptr inbounds [600 x i8], [600 x i8]* %6, i64 0, i64 %49
  %51 = load i8, i8* %50, align 1
  %52 = sext i8 %51 to i32
  %53 = icmp ne i32 %52, 71
  br i1 %53, label %54, label %55

54:                                               ; preds = %47
  store i32 0, i32* %5, align 4
  br label %59

55:                                               ; preds = %47, %40, %33, %26
  br label %56

56:                                               ; preds = %55
  %57 = load i32, i32* %4, align 4
  %58 = add nsw i32 %57, 1
  store i32 %58, i32* %4, align 4
  br label %20

59:                                               ; preds = %54, %20
  store i32 0, i32* %4, align 4
  br label %60

60:                                               ; preds = %96, %59
  %61 = load i32, i32* %4, align 4
  %62 = sext i32 %61 to i64
  %63 = getelementptr inbounds [600 x i8], [600 x i8]* %7, i64 0, i64 0
  %64 = call i64 @strlen(i8* %63) #3
  %65 = icmp ult i64 %62, %64
  br i1 %65, label %66, label %99

66:                                               ; preds = %60
  %67 = load i32, i32* %4, align 4
  %68 = sext i32 %67 to i64
  %69 = getelementptr inbounds [600 x i8], [600 x i8]* %7, i64 0, i64 %68
  %70 = load i8, i8* %69, align 1
  %71 = sext i8 %70 to i32
  %72 = icmp ne i32 %71, 65
  br i1 %72, label %73, label %95

73:                                               ; preds = %66
  %74 = load i32, i32* %4, align 4
  %75 = sext i32 %74 to i64
  %76 = getelementptr inbounds [600 x i8], [600 x i8]* %7, i64 0, i64 %75
  %77 = load i8, i8* %76, align 1
  %78 = sext i8 %77 to i32
  %79 = icmp ne i32 %78, 67
  br i1 %79, label %80, label %95

80:                                               ; preds = %73
  %81 = load i32, i32* %4, align 4
  %82 = sext i32 %81 to i64
  %83 = getelementptr inbounds [600 x i8], [600 x i8]* %7, i64 0, i64 %82
  %84 = load i8, i8* %83, align 1
  %85 = sext i8 %84 to i32
  %86 = icmp ne i32 %85, 84
  br i1 %86, label %87, label %95

87:                                               ; preds = %80
  %88 = load i32, i32* %4, align 4
  %89 = sext i32 %88 to i64
  %90 = getelementptr inbounds [600 x i8], [600 x i8]* %7, i64 0, i64 %89
  %91 = load i8, i8* %90, align 1
  %92 = sext i8 %91 to i32
  %93 = icmp ne i32 %92, 71
  br i1 %93, label %94, label %95

94:                                               ; preds = %87
  store i32 0, i32* %5, align 4
  br label %99

95:                                               ; preds = %87, %80, %73, %66
  br label %96

96:                                               ; preds = %95
  %97 = load i32, i32* %4, align 4
  %98 = add nsw i32 %97, 1
  store i32 %98, i32* %4, align 4
  br label %60

99:                                               ; preds = %94, %60
  %100 = load i32, i32* %5, align 4
  %101 = icmp eq i32 %100, 1
  br i1 %101, label %102, label %143

102:                                              ; preds = %99
  store i32 0, i32* %4, align 4
  br label %103

103:                                              ; preds = %125, %102
  %104 = load i32, i32* %4, align 4
  %105 = sext i32 %104 to i64
  %106 = getelementptr inbounds [600 x i8], [600 x i8]* %6, i64 0, i64 0
  %107 = call i64 @strlen(i8* %106) #3
  %108 = icmp ult i64 %105, %107
  br i1 %108, label %109, label %128

109:                                              ; preds = %103
  %110 = load i32, i32* %4, align 4
  %111 = sext i32 %110 to i64
  %112 = getelementptr inbounds [600 x i8], [600 x i8]* %6, i64 0, i64 %111
  %113 = load i8, i8* %112, align 1
  %114 = sext i8 %113 to i32
  %115 = load i32, i32* %4, align 4
  %116 = sext i32 %115 to i64
  %117 = getelementptr inbounds [600 x i8], [600 x i8]* %7, i64 0, i64 %116
  %118 = load i8, i8* %117, align 1
  %119 = sext i8 %118 to i32
  %120 = icmp eq i32 %114, %119
  br i1 %120, label %121, label %124

121:                                              ; preds = %109
  %122 = load i32, i32* %3, align 4
  %123 = add nsw i32 %122, 1
  store i32 %123, i32* %3, align 4
  br label %124

124:                                              ; preds = %121, %109
  br label %125

125:                                              ; preds = %124
  %126 = load i32, i32* %4, align 4
  %127 = add nsw i32 %126, 1
  store i32 %127, i32* %4, align 4
  br label %103

128:                                              ; preds = %103
  %129 = load i32, i32* %3, align 4
  %130 = sitofp i32 %129 to double
  %131 = fmul double 1.000000e+00, %130
  %132 = getelementptr inbounds [600 x i8], [600 x i8]* %6, i64 0, i64 0
  %133 = call i64 @strlen(i8* %132) #3
  %134 = uitofp i64 %133 to double
  %135 = fdiv double %131, %134
  %136 = load double, double* %2, align 8
  %137 = fcmp ogt double %135, %136
  br i1 %137, label %138, label %140

138:                                              ; preds = %128
  %139 = call i32 (i8*, ...) @printf(i8* getelementptr inbounds ([4 x i8], [4 x i8]* @.str.2, i64 0, i64 0))
  br label %142

140:                                              ; preds = %128
  %141 = call i32 (i8*, ...) @printf(i8* getelementptr inbounds ([3 x i8], [3 x i8]* @.str.3, i64 0, i64 0))
  br label %142

142:                                              ; preds = %140, %138
  br label %143

143:                                              ; preds = %142, %99
  %144 = load i32, i32* %5, align 4
  %145 = icmp eq i32 %144, 0
  br i1 %145, label %146, label %148

146:                                              ; preds = %143
  %147 = call i32 (i8*, ...) @printf(i8* getelementptr inbounds ([6 x i8], [6 x i8]* @.str.4, i64 0, i64 0))
  br label %148

148:                                              ; preds = %146, %143
  ret i32 0
}

declare dso_local i32 @__isoc99_scanf(i8*, ...) #1

; Function Attrs: nounwind readonly
declare dso_local i64 @strlen(i8*) #2

declare dso_local i32 @printf(i8*, ...) #1


!llvm.module.flags = !{!0}
!llvm.ident = !{!1}

!0 = !{i32 1, !"wchar_size", i32 4}
!1 = !{!"clang version 10.0.0-4ubuntu1 "}
